target datalayout = "e-m:e-p270:32:32-p271:32:32-p272:64:64-i64:64-i128:128-f80:128-n8:16:32:64-S128"
target triple = "x86_64-unknown-linux-gnu"

%"class.std::basic_istream<char>::sentry" = type { i8 }

; Function Attrs: mustprogress uwtable
define internal noundef nonnull align 8 dereferenceable(16) ptr @_ZN7tinyobjL11safeGetlineERSiRNSt7__cxx1112basic_stringIcSt11char_traitsIcESaIcEEE(ptr noundef nonnull align 8 dereferenceable(16) %is, ptr noundef nonnull align 8 dereferenceable(32) %t) #2 {
entry:
  %retval = alloca ptr, align 8
  %is.addr = alloca ptr, align 8
  %t.addr = alloca ptr, align 8
  %se = alloca %"class.std::basic_istream<char>::sentry", align 1
  %sb = alloca ptr, align 8
  %c = alloca i32, align 4
  store ptr %is, ptr %is.addr, align 8
  store ptr %t, ptr %t.addr, align 8
  %0 = load ptr, ptr %t.addr, align 8
  call void @_ZNSt7__cxx1112basic_stringIcSt11char_traitsIcESaIcEE5clearEv(ptr noundef nonnull align 8 dereferenceable(32) %0) #14
  %1 = load ptr, ptr %is.addr, align 8
  call void @_ZNSi6sentryC1ERSib(ptr noundef nonnull align 1 dereferenceable(1) %se, ptr noundef nonnull align 8 dereferenceable(16) %1, i1 noundef zeroext true)
  %2 = load ptr, ptr %is.addr, align 8
  %vtable = load ptr, ptr %2, align 8
  %vbase.offset.ptr = getelementptr i8, ptr %vtable, i64 -24
  %vbase.offset = load i64, ptr %vbase.offset.ptr, align 8
  %add.ptr = getelementptr inbounds i8, ptr %2, i64 %vbase.offset
  %call = call noundef ptr @_ZNKSt9basic_iosIcSt11char_traitsIcEE5rdbufEv(ptr noundef nonnull align 8 dereferenceable(264) %add.ptr)
  store ptr %call, ptr %sb, align 8
  %call1 = call noundef zeroext i1 @_ZNKSi6sentrycvbEv(ptr noundef nonnull align 1 dereferenceable(1) %se)
  br i1 %call1, label %if.then, label %if.end16

if.then:                                          ; preds = %entry
  br label %for.cond

for.cond:                                         ; preds = %sw.epilog, %if.then
  %3 = load ptr, ptr %sb, align 8
  %call2 = call noundef i32 @_ZNSt15basic_streambufIcSt11char_traitsIcEE6sbumpcEv(ptr noundef nonnull align 8 dereferenceable(64) %3)
  store i32 %call2, ptr %c, align 4
  %4 = load i32, ptr %c, align 4
  switch i32 %4, label %sw.default [
    i32 10, label %sw.bb
    i32 13, label %sw.bb3
    i32 -1, label %sw.bb7
  ]

sw.bb:                                            ; preds = %for.cond
  %5 = load ptr, ptr %is.addr, align 8
  store ptr %5, ptr %retval, align 8
  br label %return

sw.bb3:                                           ; preds = %for.cond
  %6 = load ptr, ptr %sb, align 8
  %call4 = call noundef i32 @_ZNSt15basic_streambufIcSt11char_traitsIcEE5sgetcEv(ptr noundef nonnull align 8 dereferenceable(64) %6)
  %cmp = icmp eq i32 %call4, 10
  br i1 %cmp, label %if.then5, label %if.end

if.then5:                                         ; preds = %sw.bb3
  %7 = load ptr, ptr %sb, align 8
  %call6 = call noundef i32 @_ZNSt15basic_streambufIcSt11char_traitsIcEE6sbumpcEv(ptr noundef nonnull align 8 dereferenceable(64) %7)
  br label %if.end

if.end:                                           ; preds = %if.then5, %sw.bb3
  %8 = load ptr, ptr %is.addr, align 8
  store ptr %8, ptr %retval, align 8
  br label %return

sw.bb7:                                           ; preds = %for.cond
  %9 = load ptr, ptr %t.addr, align 8
  %call8 = call noundef zeroext i1 @_ZNKSt7__cxx1112basic_stringIcSt11char_traitsIcESaIcEE5emptyEv(ptr noundef nonnull align 8 dereferenceable(32) %9) #14
  br i1 %call8, label %if.then9, label %if.end14

if.then9:                                         ; preds = %sw.bb7
  %10 = load ptr, ptr %is.addr, align 8
  %vtable10 = load ptr, ptr %10, align 8
  %vbase.offset.ptr11 = getelementptr i8, ptr %vtable10, i64 -24
  %vbase.offset12 = load i64, ptr %vbase.offset.ptr11, align 8
  %add.ptr13 = getelementptr inbounds i8, ptr %10, i64 %vbase.offset12
  call void @_ZNSt9basic_iosIcSt11char_traitsIcEE8setstateESt12_Ios_Iostate(ptr noundef nonnull align 8 dereferenceable(264) %add.ptr13, i32 noundef 2)
  br label %if.end14

if.end14:                                         ; preds = %if.then9, %sw.bb7
  %11 = load ptr, ptr %is.addr, align 8
  store ptr %11, ptr %retval, align 8
  br label %return

sw.default:                                       ; preds = %for.cond
  %12 = load i32, ptr %c, align 4
  %conv = trunc i32 %12 to i8
  %13 = load ptr, ptr %t.addr, align 8
  %call15 = call noundef nonnull align 8 dereferenceable(32) ptr @_ZNSt7__cxx1112basic_stringIcSt11char_traitsIcESaIcEEpLEc(ptr noundef nonnull align 8 dereferenceable(32) %13, i8 noundef signext %conv)
  br label %sw.epilog

sw.epilog:                                        ; preds = %sw.default
  br label %for.cond, !llvm.loop !8

if.end16:                                         ; preds = %entry
  %14 = load ptr, ptr %is.addr, align 8
  store ptr %14, ptr %retval, align 8
  br label %return

return:                                           ; preds = %if.end16, %if.end14, %if.end, %sw.bb
  %15 = load ptr, ptr %retval, align 8
  ret ptr %15
}