; Function Attrs: mustprogress uwtable
define internal fastcc noundef nonnull align 8 dereferenceable(16) ptr @_ZN7tinyobjL11safeGetlineERSiRNSt7__cxx1112basic_stringIcSt11char_traitsIcESaIcEEE(ptr noundef nonnull returned align 8 dereferenceable(16) %is, ptr noundef nonnull align 8 dereferenceable(32) %t) unnamed_addr #3 {
entry:
  %se = alloca %"class.std::basic_istream<char>::sentry", align 1
  tail call void @_ZNSt7__cxx1112basic_stringIcSt11char_traitsIcESaIcEE5clearEv(ptr noundef nonnull align 8 dereferenceable(32) %t) #24
  call void @_ZNSi6sentryC1ERSib(ptr noundef nonnull align 1 dereferenceable(1) %se, ptr noundef nonnull align 8 dereferenceable(16) %is, i1 noundef zeroext true)
  %vtable = load ptr, ptr %is, align 8
  %vbase.offset.ptr = getelementptr i8, ptr %vtable, i64 -24
  %vbase.offset = load i64, ptr %vbase.offset.ptr, align 8
  %add.ptr = getelementptr inbounds i8, ptr %is, i64 %vbase.offset
  %call = call noundef ptr @_ZNKSt9basic_iosIcSt11char_traitsIcEE5rdbufEv(ptr noundef nonnull align 8 dereferenceable(264) %add.ptr)
  %call1 = call noundef zeroext i1 @_ZNKSi6sentrycvbEv(ptr noundef nonnull align 1 dereferenceable(1) %se)
  br i1 %call1, label %for.cond, label %return

for.cond:                                         ; preds = %entry, %sw.default
  %call2 = call noundef i32 @_ZNSt15basic_streambufIcSt11char_traitsIcEE6sbumpcEv(ptr noundef nonnull align 8 dereferenceable(64) %call)
  switch i32 %call2, label %sw.default [
    i32 10, label %return
    i32 13, label %sw.bb3
    i32 -1, label %sw.bb7
  ]

sw.bb3:                                           ; preds = %for.cond
  %call4 = call noundef i32 @_ZNSt15basic_streambufIcSt11char_traitsIcEE5sgetcEv(ptr noundef nonnull align 8 dereferenceable(64) %call)
  %cmp = icmp eq i32 %call4, 10
  br i1 %cmp, label %if.then5, label %return

if.then5:                                         ; preds = %sw.bb3
  %call6 = call noundef i32 @_ZNSt15basic_streambufIcSt11char_traitsIcEE6sbumpcEv(ptr noundef nonnull align 8 dereferenceable(64) %call)
  br label %return

sw.bb7:                                           ; preds = %for.cond
  %call8 = call noundef zeroext i1 @_ZNKSt7__cxx1112basic_stringIcSt11char_traitsIcESaIcEE5emptyEv(ptr noundef nonnull align 8 dereferenceable(32) %t) #24
  br i1 %call8, label %if.then9, label %return

if.then9:                                         ; preds = %sw.bb7
  %vtable10 = load ptr, ptr %is, align 8
  %vbase.offset.ptr11 = getelementptr i8, ptr %vtable10, i64 -24
  %vbase.offset12 = load i64, ptr %vbase.offset.ptr11, align 8
  %add.ptr13 = getelementptr inbounds i8, ptr %is, i64 %vbase.offset12
  call void @_ZNSt9basic_iosIcSt11char_traitsIcEE8setstateESt12_Ios_Iostate(ptr noundef nonnull align 8 dereferenceable(264) %add.ptr13, i32 noundef 2)
  br label %return

sw.default:                                       ; preds = %for.cond
  %conv = trunc i32 %call2 to i8
  %call15 = call noundef nonnull align 8 dereferenceable(32) ptr @_ZNSt7__cxx1112basic_stringIcSt11char_traitsIcESaIcEEpLEc(ptr noundef nonnull align 8 dereferenceable(32) %t, i8 noundef signext %conv)
  br label %for.cond, !llvm.loop !8

return:                                           ; preds = %for.cond, %entry, %sw.bb7, %if.then9, %sw.bb3, %if.then5
  ret ptr %is
}